; ModuleID = '24/2673.c'
source_filename = "24/2673.c"
target datalayout = "e-m:e-p270:32:32-p271:32:32-p272:64:64-i64:64-f80:128-n8:16:32:64-S128"
target triple = "x86_64-pc-linux-gnu"

@.str = private unnamed_addr constant [3 x i8] c"%d\00", align 1
@.str.1 = private unnamed_addr constant [3 x i8] c"%s\00", align 1
@.str.2 = private unnamed_addr constant [4 x i8] c"%s\0A\00", align 1

; Function Attrs: noinline nounwind uwtable
define dso_local i32 @main() #0 {
  %1 = alloca i32, align 4
  %2 = alloca i32, align 4
  %3 = alloca [40 x i8], align 16
  %4 = alloca [40 x i8], align 16
  %5 = alloca [40 x i8], align 16
  %6 = alloca i32, align 4
  %7 = alloca i32, align 4
  store i32 0, i32* %1, align 4
  %8 = call i32 (i8*, ...) @__isoc99_scanf(i8* getelementptr inbounds ([3 x i8], [3 x i8]* @.str, i64 0, i64 0), i32* %2)
  %9 = getelementptr inbounds [40 x i8], [40 x i8]* %4, i64 0, i64 0
  %10 = call i32 (i8*, ...) @__isoc99_scanf(i8* getelementptr inbounds ([3 x i8], [3 x i8]* @.str.1, i64 0, i64 0), i8* %9)
  %11 = getelementptr inbounds [40 x i8], [40 x i8]* %5, i64 0, i64 0
  %12 = getelementptr inbounds [40 x i8], [40 x i8]* %4, i64 0, i64 0
  %13 = call i8* @strcpy(i8* %11, i8* %12) #4
  store i32 1, i32* %7, align 4
  br label %14

14:                                               ; preds = %41, %0
  %15 = load i32, i32* %7, align 4
  %16 = load i32, i32* %2, align 4
  %17 = icmp slt i32 %15, %16
  br i1 %17, label %18, label %44

18:                                               ; preds = %14
  %19 = getelementptr inbounds [40 x i8], [40 x i8]* %3, i64 0, i64 0
  %20 = call i32 (i8*, ...) @__isoc99_scanf(i8* getelementptr inbounds ([3 x i8], [3 x i8]* @.str.1, i64 0, i64 0), i8* %19)
  %21 = getelementptr inbounds [40 x i8], [40 x i8]* %3, i64 0, i64 0
  %22 = call i64 @strlen(i8* %21) #5
  %23 = getelementptr inbounds [40 x i8], [40 x i8]* %4, i64 0, i64 0
  %24 = call i64 @strlen(i8* %23) #5
  %25 = icmp ugt i64 %22, %24
  br i1 %25, label %26, label %30

26:                                               ; preds = %18
  %27 = getelementptr inbounds [40 x i8], [40 x i8]* %4, i64 0, i64 0
  %28 = getelementptr inbounds [40 x i8], [40 x i8]* %3, i64 0, i64 0
  %29 = call i8* @strcpy(i8* %27, i8* %28) #4
  br label %30

30:                                               ; preds = %26, %18
  %31 = getelementptr inbounds [40 x i8], [40 x i8]* %3, i64 0, i64 0
  %32 = call i64 @strlen(i8* %31) #5
  %33 = getelementptr inbounds [40 x i8], [40 x i8]* %5, i64 0, i64 0
  %34 = call i64 @strlen(i8* %33) #5
  %35 = icmp ult i64 %32, %34
  br i1 %35, label %36, label %40

36:                                               ; preds = %30
  %37 = getelementptr inbounds [40 x i8], [40 x i8]* %5, i64 0, i64 0
  %38 = getelementptr inbounds [40 x i8], [40 x i8]* %3, i64 0, i64 0
  %39 = call i8* @strcpy(i8* %37, i8* %38) #4
  br label %40

40:                                               ; preds = %36, %30
  br label %41

41:                                               ; preds = %40
  %42 = load i32, i32* %7, align 4
  %43 = add nsw i32 %42, 1
  store i32 %43, i32* %7, align 4
  br label %14

44:                                               ; preds = %14
  %45 = getelementptr inbounds [40 x i8], [40 x i8]* %4, i64 0, i64 0
  %46 = call i32 (i8*, ...) @printf(i8* getelementptr inbounds ([4 x i8], [4 x i8]* @.str.2, i64 0, i64 0), i8* %45)
  %47 = getelementptr inbounds [40 x i8], [40 x i8]* %5, i64 0, i64 0
  %48 = call i32 (i8*, ...) @printf(i8* getelementptr inbounds ([3 x i8], [3 x i8]* @.str.1, i64 0, i64 0), i8* %47)
  %49 = load i32, i32* %1, align 4
  ret i32 %49
}

declare dso_local i32 @__isoc99_scanf(i8*, ...) #1

; Function Attrs: nounwind
declare dso_local i8* @strcpy(i8*, i8*) #2

; Function Attrs: nounwind readonly
declare dso_local i64 @strlen(i8*) #3

declare dso_local i32 @printf(i8*, ...) #1


!llvm.module.flags = !{!0}
!llvm.ident = !{!1}

!0 = !{i32 1, !"wchar_size", i32 4}
!1 = !{!"clang version 10.0.0-4ubuntu1 "}
